target datalayout = "e-m:e-p270:32:32-p271:32:32-p272:64:64-i64:64-i128:128-f80:128-n8:16:32:64-S128"
target triple = "x86_64-pc-linux-gnu"

@hf_dis_datum_id = internal global i32 0, align 4
@hf_dis_datum_length = internal global i32 0, align 4
@hf_dis_variable_datum_value = internal global i32 0, align 4
@hf_dis_variable_datum_value_as_text = internal global i32 0, align 4
@ett_fixed_datum = internal global i32 0, align 4

; Function Attrs: nounwind uwtable
define internal i32 @parseField_DIS_FIELDS_VARIABLE_DATUM(ptr noundef %0, ptr noundef %1, i32 noundef %2, ptr noundef %3, i32 noundef %4) #0 {
  %6 = alloca ptr, align 8
  %7 = alloca ptr, align 8
  %8 = alloca i32, align 4
  %9 = alloca ptr, align 8
  %10 = alloca i32, align 4
  %11 = alloca ptr, align 8
  %12 = alloca ptr, align 8
  %13 = alloca i32, align 4
  %14 = alloca i32, align 4
  %15 = alloca i32, align 4
  %16 = alloca i8, align 1
  store ptr %0, ptr %6, align 8
  store ptr %1, ptr %7, align 8
  store i32 %2, ptr %8, align 4
  store ptr %3, ptr %9, align 8
  store i32 %4, ptr %10, align 4
  store i32 0, ptr %13, align 4
  br label %17

17:                                               ; preds = %88, %5
  %18 = load i32, ptr %13, align 4
  %19 = load i32, ptr %10, align 4
  %20 = icmp ult i32 %18, %19
  br i1 %20, label %21, label %91

21:                                               ; preds = %17
  %22 = load ptr, ptr %7, align 8
  %23 = load ptr, ptr %6, align 8
  %24 = load i32, ptr %8, align 4
  %25 = load i32, ptr @ett_fixed_datum, align 4
  %26 = load ptr, ptr %9, align 8
  %27 = call ptr @proto_tree_add_subtree(ptr noundef %22, ptr noundef %23, i32 noundef %24, i32 noundef -1, i32 noundef %25, ptr noundef %11, ptr noundef %26)
  store ptr %27, ptr %12, align 8
  %28 = load ptr, ptr %12, align 8
  %29 = load i32, ptr @hf_dis_datum_id, align 4
  %30 = load ptr, ptr %6, align 8
  %31 = load i32, ptr %8, align 4
  %32 = call ptr @proto_tree_add_item(ptr noundef %28, i32 noundef %29, ptr noundef %30, i32 noundef %31, i32 noundef 4, i32 noundef 0)
  %33 = load i32, ptr %8, align 4
  %34 = add i32 %33, 4
  store i32 %34, ptr %8, align 4
  %35 = load ptr, ptr %6, align 8
  %36 = load i32, ptr %8, align 4
  %37 = call i32 @tvb_get_ntohl(ptr noundef %35, i32 noundef %36)
  store i32 %37, ptr %14, align 4
  %38 = load ptr, ptr %12, align 8
  %39 = load i32, ptr @hf_dis_datum_length, align 4
  %40 = load ptr, ptr %6, align 8
  %41 = load i32, ptr %8, align 4
  %42 = call ptr @proto_tree_add_item(ptr noundef %38, i32 noundef %39, ptr noundef %40, i32 noundef %41, i32 noundef 4, i32 noundef 0)
  %43 = load i32, ptr %8, align 4
  %44 = add i32 %43, 4
  store i32 %44, ptr %8, align 4
  %45 = load i32, ptr %14, align 4
  %46 = udiv i32 %45, 8
  store i32 %46, ptr %15, align 4
  %47 = load i32, ptr %14, align 4
  %48 = urem i32 %47, 8
  %49 = icmp ugt i32 %48, 0
  br i1 %49, label %50, label %53

50:                                               ; preds = %21
  %51 = load i32, ptr %15, align 4
  %52 = add i32 %51, 1
  store i32 %52, ptr %15, align 4
  br label %53

53:                                               ; preds = %50, %21
  %54 = load ptr, ptr %12, align 8
  %55 = load i32, ptr @hf_dis_variable_datum_value, align 4
  %56 = load ptr, ptr %6, align 8
  %57 = load i32, ptr %8, align 4
  %58 = load i32, ptr %15, align 4
  %59 = call ptr @proto_tree_add_item(ptr noundef %54, i32 noundef %55, ptr noundef %56, i32 noundef %57, i32 noundef %58, i32 noundef 0)
  %60 = load ptr, ptr %12, align 8
  %61 = load i32, ptr @hf_dis_variable_datum_value_as_text, align 4
  %62 = load ptr, ptr %6, align 8
  %63 = load i32, ptr %8, align 4
  %64 = load i32, ptr %15, align 4
  %65 = call ptr @proto_tree_add_item(ptr noundef %60, i32 noundef %61, ptr noundef %62, i32 noundef %63, i32 noundef %64, i32 noundef 0)
  %66 = load i32, ptr %15, align 4
  %67 = load i32, ptr %8, align 4
  %68 = add i32 %67, %66
  store i32 %68, ptr %8, align 4
  %69 = load i32, ptr %15, align 4
  %70 = urem i32 %69, 8
  %71 = trunc i32 %70 to i8
  store i8 %71, ptr %16, align 1
  %72 = load i8, ptr %16, align 1
  %73 = zext i8 %72 to i32
  %74 = icmp sgt i32 %73, 0
  br i1 %74, label %75, label %80

75:                                               ; preds = %53
  %76 = load i8, ptr %16, align 1
  %77 = zext i8 %76 to i32
  %78 = sub i32 8, %77
  %79 = trunc i32 %78 to i8
  store i8 %79, ptr %16, align 1
  br label %80

80:                                               ; preds = %75, %53
  %81 = load i8, ptr %16, align 1
  %82 = zext i8 %81 to i32
  %83 = load i32, ptr %8, align 4
  %84 = add i32 %83, %82
  store i32 %84, ptr %8, align 4
  %85 = load ptr, ptr %11, align 8
  %86 = load ptr, ptr %6, align 8
  %87 = load i32, ptr %8, align 4
  call void @proto_item_set_end(ptr noundef %85, ptr noundef %86, i32 noundef %87)
  br label %88

88:                                               ; preds = %80
  %89 = load i32, ptr %13, align 4
  %90 = add i32 %89, 1
  store i32 %90, ptr %13, align 4
  br label %17, !llvm.loop !20

91:                                               ; preds = %17
  %92 = load i32, ptr %8, align 4
  ret i32 %92
}