; Function Attrs: nounwind uwtable
define internal fastcc noundef i32 @parseField_DIS_FIELDS_VARIABLE_DATUM(ptr noundef %0, ptr noundef %1, i32 noundef %2, ptr noundef %3, i32 noundef %4) unnamed_addr #0 {
  %6 = alloca ptr, align 8
  %.not44 = icmp eq i32 %4, 0
  br i1 %.not44, label %._crit_edge, label %.lr.ph

.lr.ph:                                           ; preds = %5, %.lr.ph
  %.03843 = phi i32 [ %26, %.lr.ph ], [ %2, %5 ]
  %.03942 = phi i32 [ %28, %.lr.ph ], [ 0, %5 ]
  %7 = load i32, ptr @ett_fixed_datum, align 4
  %8 = call ptr @proto_tree_add_subtree(ptr noundef %1, ptr noundef %0, i32 noundef %.03843, i32 noundef -1, i32 noundef %7, ptr noundef nonnull %6, ptr noundef %3) #4
  %9 = load i32, ptr @hf_dis_datum_id, align 4
  %10 = call ptr @proto_tree_add_item(ptr noundef %8, i32 noundef %9, ptr noundef %0, i32 noundef %.03843, i32 noundef 4, i32 noundef 0) #4
  %11 = add i32 %.03843, 4
  %12 = call i32 @tvb_get_ntohl(ptr noundef %0, i32 noundef %11) #4
  %13 = load i32, ptr @hf_dis_datum_length, align 4
  %14 = call ptr @proto_tree_add_item(ptr noundef %8, i32 noundef %13, ptr noundef %0, i32 noundef %11, i32 noundef 4, i32 noundef 0) #4
  %15 = add i32 %.03843, 8
  %16 = lshr i32 %12, 3
  %17 = and i32 %12, 7
  %.not = icmp ne i32 %17, 0
  %18 = zext i1 %.not to i32
  %spec.select = add nuw nsw i32 %16, %18
  %19 = load i32, ptr @hf_dis_variable_datum_value, align 4
  %20 = call ptr @proto_tree_add_item(ptr noundef %8, i32 noundef %19, ptr noundef %0, i32 noundef %15, i32 noundef %spec.select, i32 noundef 0) #4
  %21 = load i32, ptr @hf_dis_variable_datum_value_as_text, align 4
  %22 = call ptr @proto_tree_add_item(ptr noundef %8, i32 noundef %21, ptr noundef %0, i32 noundef %15, i32 noundef %spec.select, i32 noundef 0) #4
  %23 = add i32 %spec.select, %15
  %24 = and i32 %spec.select, 7
  %.not41 = icmp eq i32 %24, 0
  %25 = sub nuw nsw i32 8, %24
  %.0 = select i1 %.not41, i32 0, i32 %25
  %26 = add i32 %23, %.0
  %27 = load ptr, ptr %6, align 8
  call void @proto_item_set_end(ptr noundef %27, ptr noundef %0, i32 noundef %26) #4
  %28 = add nuw i32 %.03942, 1
  %exitcond.not = icmp eq i32 %28, %4
  br i1 %exitcond.not, label %._crit_edge, label %.lr.ph, !llvm.loop !21

._crit_edge:                                      ; preds = %.lr.ph, %5
  %.038.lcssa = phi i32 [ %2, %5 ], [ %26, %.lr.ph ]
  ret i32 %.038.lcssa
}